target datalayout = "e-m:e-p270:32:32-p271:32:32-p272:64:64-i64:64-i128:128-f80:128-n8:16:32:64-S128"
target triple = "x86_64-unknown-linux-gnu"

%"struct.ClipperLib::IntPoint" = type { i64, i64 }
%"struct.ClipperLib::TEdge" = type { %"struct.ClipperLib::IntPoint", %"struct.ClipperLib::IntPoint", %"struct.ClipperLib::IntPoint", double, i32, i32, i32, i32, i32, i32, ptr, ptr, ptr, ptr, ptr, ptr, ptr }

; Function Attrs: mustprogress nounwind uwtable
define linkonce_odr hidden noundef zeroext i1 @_ZN10ClipperLibeqERKNS_8IntPointES2_(ptr noundef nonnull align 8 dereferenceable(16) %a, ptr noundef nonnull align 8 dereferenceable(16) %b) #1 comdat {
entry:
  %a.addr = alloca ptr, align 8
  %b.addr = alloca ptr, align 8
  store ptr %a, ptr %a.addr, align 8
  store ptr %b, ptr %b.addr, align 8
  %0 = load ptr, ptr %a.addr, align 8
  %X = getelementptr inbounds %"struct.ClipperLib::IntPoint", ptr %0, i32 0, i32 0
  %1 = load i64, ptr %X, align 8
  %2 = load ptr, ptr %b.addr, align 8
  %X1 = getelementptr inbounds %"struct.ClipperLib::IntPoint", ptr %2, i32 0, i32 0
  %3 = load i64, ptr %X1, align 8
  %cmp = icmp eq i64 %1, %3
  br i1 %cmp, label %land.rhs, label %land.end

land.rhs:                                         ; preds = %entry
  %4 = load ptr, ptr %a.addr, align 8
  %Y = getelementptr inbounds %"struct.ClipperLib::IntPoint", ptr %4, i32 0, i32 1
  %5 = load i64, ptr %Y, align 8
  %6 = load ptr, ptr %b.addr, align 8
  %Y2 = getelementptr inbounds %"struct.ClipperLib::IntPoint", ptr %6, i32 0, i32 1
  %7 = load i64, ptr %Y2, align 8
  %cmp3 = icmp eq i64 %5, %7
  br label %land.end

land.end:                                         ; preds = %land.rhs, %entry
  %8 = phi i1 [ false, %entry ], [ %cmp3, %land.rhs ]
  ret i1 %8
}

; Function Attrs: mustprogress uwtable
define hidden noundef ptr @_ZN10ClipperLib13GetMaximaPairEPNS_5TEdgeE(ptr noundef %e) #0 {
entry:
  %retval = alloca ptr, align 8
  %e.addr = alloca ptr, align 8
  store ptr %e, ptr %e.addr, align 8
  %0 = load ptr, ptr %e.addr, align 8
  %Next = getelementptr inbounds %"struct.ClipperLib::TEdge", ptr %0, i32 0, i32 10
  %1 = load ptr, ptr %Next, align 8
  %Top = getelementptr inbounds %"struct.ClipperLib::TEdge", ptr %1, i32 0, i32 2
  %2 = load ptr, ptr %e.addr, align 8
  %Top1 = getelementptr inbounds %"struct.ClipperLib::TEdge", ptr %2, i32 0, i32 2
  %call = call noundef zeroext i1 @_ZN10ClipperLibeqERKNS_8IntPointES2_(ptr noundef nonnull align 8 dereferenceable(16) %Top, ptr noundef nonnull align 8 dereferenceable(16) %Top1)
  br i1 %call, label %land.lhs.true, label %if.else

land.lhs.true:                                    ; preds = %entry
  %3 = load ptr, ptr %e.addr, align 8
  %Next2 = getelementptr inbounds %"struct.ClipperLib::TEdge", ptr %3, i32 0, i32 10
  %4 = load ptr, ptr %Next2, align 8
  %NextInLML = getelementptr inbounds %"struct.ClipperLib::TEdge", ptr %4, i32 0, i32 12
  %5 = load ptr, ptr %NextInLML, align 8
  %tobool = icmp ne ptr %5, null
  br i1 %tobool, label %if.else, label %if.then

if.then:                                          ; preds = %land.lhs.true
  %6 = load ptr, ptr %e.addr, align 8
  %Next3 = getelementptr inbounds %"struct.ClipperLib::TEdge", ptr %6, i32 0, i32 10
  %7 = load ptr, ptr %Next3, align 8
  store ptr %7, ptr %retval, align 8
  br label %return

if.else:                                          ; preds = %land.lhs.true, %entry
  %8 = load ptr, ptr %e.addr, align 8
  %Prev = getelementptr inbounds %"struct.ClipperLib::TEdge", ptr %8, i32 0, i32 11
  %9 = load ptr, ptr %Prev, align 8
  %Top4 = getelementptr inbounds %"struct.ClipperLib::TEdge", ptr %9, i32 0, i32 2
  %10 = load ptr, ptr %e.addr, align 8
  %Top5 = getelementptr inbounds %"struct.ClipperLib::TEdge", ptr %10, i32 0, i32 2
  %call6 = call noundef zeroext i1 @_ZN10ClipperLibeqERKNS_8IntPointES2_(ptr noundef nonnull align 8 dereferenceable(16) %Top4, ptr noundef nonnull align 8 dereferenceable(16) %Top5)
  br i1 %call6, label %land.lhs.true7, label %if.else13

land.lhs.true7:                                   ; preds = %if.else
  %11 = load ptr, ptr %e.addr, align 8
  %Prev8 = getelementptr inbounds %"struct.ClipperLib::TEdge", ptr %11, i32 0, i32 11
  %12 = load ptr, ptr %Prev8, align 8
  %NextInLML9 = getelementptr inbounds %"struct.ClipperLib::TEdge", ptr %12, i32 0, i32 12
  %13 = load ptr, ptr %NextInLML9, align 8
  %tobool10 = icmp ne ptr %13, null
  br i1 %tobool10, label %if.else13, label %if.then11

if.then11:                                        ; preds = %land.lhs.true7
  %14 = load ptr, ptr %e.addr, align 8
  %Prev12 = getelementptr inbounds %"struct.ClipperLib::TEdge", ptr %14, i32 0, i32 11
  %15 = load ptr, ptr %Prev12, align 8
  store ptr %15, ptr %retval, align 8
  br label %return

if.else13:                                        ; preds = %land.lhs.true7, %if.else
  store ptr null, ptr %retval, align 8
  br label %return

return:                                           ; preds = %if.else13, %if.then11, %if.then
  %16 = load ptr, ptr %retval, align 8
  ret ptr %16
}