; Function Attrs: mustprogress nofree norecurse nosync nounwind willreturn memory(read, inaccessiblemem: none) uwtable
define hidden noundef ptr @_ZN10ClipperLib13GetMaximaPairEPNS_5TEdgeE(ptr nocapture noundef readonly %e) local_unnamed_addr #1 {
entry:
  %Next = getelementptr inbounds i8, ptr %e, i64 80
  %0 = load ptr, ptr %Next, align 8
  %Top = getelementptr inbounds i8, ptr %0, i64 32
  %Top1 = getelementptr inbounds i8, ptr %e, i64 32
  %1 = load i64, ptr %Top, align 8
  %2 = load i64, ptr %Top1, align 8
  %cmp.i = icmp eq i64 %1, %2
  %Y.i = getelementptr inbounds i8, ptr %0, i64 40
  %3 = load i64, ptr %Y.i, align 8
  %Y2.i = getelementptr inbounds i8, ptr %e, i64 40
  %4 = load i64, ptr %Y2.i, align 8
  %cmp3.i = icmp eq i64 %3, %4
  %5 = select i1 %cmp.i, i1 %cmp3.i, i1 false
  br i1 %5, label %land.lhs.true, label %if.else

land.lhs.true:                                    ; preds = %entry
  %NextInLML = getelementptr inbounds i8, ptr %0, i64 96
  %6 = load ptr, ptr %NextInLML, align 8
  %tobool.not = icmp eq ptr %6, null
  br i1 %tobool.not, label %return, label %if.else

if.else:                                          ; preds = %land.lhs.true, %entry
  %Prev = getelementptr inbounds i8, ptr %e, i64 88
  %7 = load ptr, ptr %Prev, align 8
  %Top4 = getelementptr inbounds i8, ptr %7, i64 32
  %8 = load i64, ptr %Top4, align 8
  %cmp.i8 = icmp eq i64 %8, %2
  %Y.i9 = getelementptr inbounds i8, ptr %7, i64 40
  %9 = load i64, ptr %Y.i9, align 8
  %cmp3.i11 = icmp eq i64 %9, %4
  %10 = select i1 %cmp.i8, i1 %cmp3.i11, i1 false
  br i1 %10, label %land.lhs.true7, label %if.else13

land.lhs.true7:                                   ; preds = %if.else
  %NextInLML9 = getelementptr inbounds i8, ptr %7, i64 96
  %11 = load ptr, ptr %NextInLML9, align 8
  %tobool10.not = icmp eq ptr %11, null
  br i1 %tobool10.not, label %return, label %if.else13

if.else13:                                        ; preds = %land.lhs.true7, %if.else
  br label %return

return:                                           ; preds = %land.lhs.true7, %land.lhs.true, %if.else13
  %retval.0 = phi ptr [ null, %if.else13 ], [ %0, %land.lhs.true ], [ %7, %land.lhs.true7 ]
  ret ptr %retval.0
}